target datalayout = "e-m:e-p270:32:32-p271:32:32-p272:64:64-i64:64-i128:128-f80:128-n8:16:32:64-S128"
target triple = "x86_64-pc-linux-gnu"

%struct.udp_arg = type { i64, ptr }

@.str.8 = private unnamed_addr constant [11 x i8] c"connect(2)\00", align 1

; Function Attrs: nounwind sspstrong uwtable
define internal i64 @udp_connect(i64 noundef %0, i64 noundef %1, i64 noundef %2) #0 {
  %4 = alloca i64, align 8
  %5 = alloca i64, align 8
  %6 = alloca i64, align 8
  %7 = alloca %struct.udp_arg, align 8
  %8 = alloca i32, align 4
  store i64 %0, ptr %4, align 8, !tbaa !6
  store i64 %1, ptr %5, align 8, !tbaa !6
  store i64 %2, ptr %6, align 8, !tbaa !6
  call void @llvm.lifetime.start.p0(i64 16, ptr %7) #10
  %9 = getelementptr inbounds nuw %struct.udp_arg, ptr %7, i32 0, i32 0
  %10 = load i64, ptr %4, align 8, !tbaa !6
  store i64 %10, ptr %9, align 8, !tbaa !15
  %11 = getelementptr inbounds nuw %struct.udp_arg, ptr %7, i32 0, i32 1
  store ptr null, ptr %11, align 8, !tbaa !18
  %12 = load i64, ptr %5, align 8, !tbaa !6
  %13 = load i64, ptr %6, align 8, !tbaa !6
  %14 = load i64, ptr %4, align 8, !tbaa !6
  %15 = call i32 @rb_io_descriptor(i64 noundef %14)
  %16 = call i32 @rsock_fd_family(i32 noundef %15)
  %17 = call ptr @rsock_addrinfo(i64 noundef %12, i64 noundef %13, i32 noundef %16, i32 noundef 2, i32 noundef 0)
  %18 = getelementptr inbounds nuw %struct.udp_arg, ptr %7, i32 0, i32 1
  store ptr %17, ptr %18, align 8, !tbaa !18
  call void @llvm.lifetime.start.p0(i64 4, ptr %8) #10
  %19 = ptrtoint ptr %7 to i64
  %20 = getelementptr inbounds nuw %struct.udp_arg, ptr %7, i32 0, i32 1
  %21 = load ptr, ptr %20, align 8, !tbaa !18
  %22 = ptrtoint ptr %21 to i64
  %23 = call i64 @rb_ensure(ptr noundef @udp_connect_internal, i64 noundef %19, ptr noundef @rsock_freeaddrinfo, i64 noundef %22)
  %24 = trunc i64 %23 to i32
  store i32 %24, ptr %8, align 4, !tbaa !10
  %25 = load i32, ptr %8, align 4, !tbaa !10
  %26 = icmp ne i32 %25, 0
  br i1 %26, label %30, label %27

27:                                               ; preds = %3
  %28 = load i64, ptr %5, align 8, !tbaa !6
  %29 = load i64, ptr %6, align 8, !tbaa !6
  call void @rsock_sys_fail_host_port(ptr noundef @.str.8, i64 noundef %28, i64 noundef %29) #11
  unreachable

30:                                               ; preds = %3
  call void @llvm.lifetime.end.p0(i64 4, ptr %8) #10
  call void @llvm.lifetime.end.p0(i64 16, ptr %7) #10
  ret i64 1
}